target datalayout = "e-m:e-p270:32:32-p271:32:32-p272:64:64-i64:64-i128:128-f80:128-n8:16:32:64-S128"
target triple = "x86_64-pc-linux-gnu"

%struct.grep_pat = type { ptr, ptr, i32, i32, ptr, i64, i32, %struct.re_pattern_buffer, ptr, ptr, ptr, ptr, ptr, i32, i8 }
%struct.re_pattern_buffer = type { ptr, i64, i64, i64, ptr, ptr, i64, i8 }
%struct.grep_expr = type { i32, i32, %union.anon }
%union.anon = type { %struct.anon }
%struct.anon = type { ptr, ptr }

@.str.35 = private unnamed_addr constant [41 x i8] c"--and not preceded by pattern expression\00", align 1
@.str.36 = private unnamed_addr constant [41 x i8] c"--and not followed by pattern expression\00", align 1

; Function Attrs: nounwind uwtable
define internal ptr @grep_binexp(i32 noundef %0, ptr noundef %1, ptr noundef %2) #0 {
  %4 = alloca i32, align 4
  %5 = alloca ptr, align 8
  %6 = alloca ptr, align 8
  %7 = alloca ptr, align 8
  store i32 %0, ptr %4, align 4, !tbaa !33
  store ptr %1, ptr %5, align 8, !tbaa !62
  store ptr %2, ptr %6, align 8, !tbaa !62
  call void @llvm.lifetime.start.p0(i64 8, ptr %7) #11
  %8 = call ptr @xcalloc(i64 noundef 1, i64 noundef 24)
  store ptr %8, ptr %7, align 8, !tbaa !62
  %9 = load i32, ptr %4, align 4, !tbaa !33
  %10 = load ptr, ptr %7, align 8, !tbaa !62
  %11 = getelementptr inbounds nuw %struct.grep_expr, ptr %10, i32 0, i32 0
  store i32 %9, ptr %11, align 8, !tbaa !76
  %12 = load ptr, ptr %5, align 8, !tbaa !62
  %13 = load ptr, ptr %7, align 8, !tbaa !62
  %14 = getelementptr inbounds nuw %struct.grep_expr, ptr %13, i32 0, i32 2
  %15 = getelementptr inbounds nuw %struct.anon, ptr %14, i32 0, i32 0
  store ptr %12, ptr %15, align 8, !tbaa !36
  %16 = load ptr, ptr %6, align 8, !tbaa !62
  %17 = load ptr, ptr %7, align 8, !tbaa !62
  %18 = getelementptr inbounds nuw %struct.grep_expr, ptr %17, i32 0, i32 2
  %19 = getelementptr inbounds nuw %struct.anon, ptr %18, i32 0, i32 1
  store ptr %16, ptr %19, align 8, !tbaa !36
  %20 = load ptr, ptr %7, align 8, !tbaa !62
  call void @llvm.lifetime.end.p0(i64 8, ptr %7) #11
  ret ptr %20
}

; Function Attrs: nounwind uwtable
define internal ptr @grep_and_expr(ptr noundef %0, ptr noundef %1) #0 {
  %3 = alloca ptr, align 8
  %4 = alloca ptr, align 8
  store ptr %0, ptr %3, align 8, !tbaa !62
  store ptr %1, ptr %4, align 8, !tbaa !62
  %5 = load ptr, ptr %3, align 8, !tbaa !62
  %6 = load ptr, ptr %4, align 8, !tbaa !62
  %7 = call ptr @grep_binexp(i32 noundef 2, ptr noundef %5, ptr noundef %6)
  ret ptr %7
}

; Function Attrs: nounwind uwtable
define internal ptr @compile_pattern_and(ptr noundef %0) #0 {
  %2 = alloca ptr, align 8
  %3 = alloca ptr, align 8
  %4 = alloca ptr, align 8
  %5 = alloca ptr, align 8
  %6 = alloca ptr, align 8
  %7 = alloca i32, align 4
  store ptr %0, ptr %3, align 8, !tbaa !58
  call void @llvm.lifetime.start.p0(i64 8, ptr %4) #11
  call void @llvm.lifetime.start.p0(i64 8, ptr %5) #11
  call void @llvm.lifetime.start.p0(i64 8, ptr %6) #11
  %8 = load ptr, ptr %3, align 8, !tbaa !58
  %9 = call ptr @compile_pattern_not(ptr noundef %8)
  store ptr %9, ptr %5, align 8, !tbaa !62
  %10 = load ptr, ptr %3, align 8, !tbaa !58
  %11 = load ptr, ptr %10, align 8, !tbaa !44
  store ptr %11, ptr %4, align 8, !tbaa !44
  %12 = load ptr, ptr %4, align 8, !tbaa !44
  %13 = icmp ne ptr %12, null
  br i1 %13, label %14, label %43

14:                                               ; preds = %1
  %15 = load ptr, ptr %4, align 8, !tbaa !44
  %16 = getelementptr inbounds nuw %struct.grep_pat, ptr %15, i32 0, i32 3
  %17 = load i32, ptr %16, align 4, !tbaa !54
  %18 = icmp eq i32 %17, 3
  br i1 %18, label %19, label %43

19:                                               ; preds = %14
  %20 = load ptr, ptr %5, align 8, !tbaa !62
  %21 = icmp ne ptr %20, null
  br i1 %21, label %23, label %22

22:                                               ; preds = %19
  call void (ptr, ...) @die(ptr noundef @.str.35) #13
  unreachable

23:                                               ; preds = %19
  %24 = load ptr, ptr %4, align 8, !tbaa !44
  %25 = getelementptr inbounds nuw %struct.grep_pat, ptr %24, i32 0, i32 0
  %26 = load ptr, ptr %25, align 8, !tbaa !59
  %27 = icmp ne ptr %26, null
  br i1 %27, label %29, label %28

28:                                               ; preds = %23
  call void (ptr, ...) @die(ptr noundef @.str.36) #13
  unreachable

29:                                               ; preds = %23
  %30 = load ptr, ptr %4, align 8, !tbaa !44
  %31 = getelementptr inbounds nuw %struct.grep_pat, ptr %30, i32 0, i32 0
  %32 = load ptr, ptr %31, align 8, !tbaa !59
  %33 = load ptr, ptr %3, align 8, !tbaa !58
  store ptr %32, ptr %33, align 8, !tbaa !44
  %34 = load ptr, ptr %3, align 8, !tbaa !58
  %35 = call ptr @compile_pattern_and(ptr noundef %34)
  store ptr %35, ptr %6, align 8, !tbaa !62
  %36 = load ptr, ptr %6, align 8, !tbaa !62
  %37 = icmp ne ptr %36, null
  br i1 %37, label %39, label %38

38:                                               ; preds = %29
  call void (ptr, ...) @die(ptr noundef @.str.36) #13
  unreachable

39:                                               ; preds = %29
  %40 = load ptr, ptr %5, align 8, !tbaa !62
  %41 = load ptr, ptr %6, align 8, !tbaa !62
  %42 = call ptr @grep_and_expr(ptr noundef %40, ptr noundef %41)
  store ptr %42, ptr %2, align 8
  store i32 1, ptr %7, align 4
  br label %45

43:                                               ; preds = %14, %1
  %44 = load ptr, ptr %5, align 8, !tbaa !62
  store ptr %44, ptr %2, align 8
  store i32 1, ptr %7, align 4
  br label %45

45:                                               ; preds = %43, %39
  call void @llvm.lifetime.end.p0(i64 8, ptr %6) #11
  call void @llvm.lifetime.end.p0(i64 8, ptr %5) #11
  call void @llvm.lifetime.end.p0(i64 8, ptr %4) #11
  %46 = load ptr, ptr %2, align 8
  ret ptr %46
}