; Function Attrs: nounwind uwtable
define internal fastcc ptr @compile_pattern_and(ptr noundef nonnull captures(none) %0) unnamed_addr #0 {
  %2 = tail call fastcc ptr @compile_pattern_not(ptr noundef %0)
  %3 = load ptr, ptr %0, align 8, !tbaa !43
  %.not = icmp eq ptr %3, null
  br i1 %.not, label %20, label %4

4:                                                ; preds = %1
  %5 = getelementptr inbounds nuw i8, ptr %3, i64 20
  %6 = load i32, ptr %5, align 4, !tbaa !39
  %7 = icmp eq i32 %6, 3
  br i1 %7, label %8, label %20

8:                                                ; preds = %4
  %.not18 = icmp eq ptr %2, null
  br i1 %.not18, label %9, label %10

9:                                                ; preds = %8
  tail call void (ptr, ...) @die(ptr noundef nonnull @.str.35) #20
  unreachable

10:                                               ; preds = %8
  %11 = load ptr, ptr %3, align 8, !tbaa !44
  %.not19 = icmp eq ptr %11, null
  br i1 %.not19, label %12, label %13

12:                                               ; preds = %10
  tail call void (ptr, ...) @die(ptr noundef nonnull @.str.36) #20
  unreachable

13:                                               ; preds = %10
  store ptr %11, ptr %0, align 8, !tbaa !43
  %14 = tail call fastcc ptr @compile_pattern_and(ptr noundef %0)
  %.not20 = icmp eq ptr %14, null
  br i1 %.not20, label %15, label %16

15:                                               ; preds = %13
  tail call void (ptr, ...) @die(ptr noundef nonnull @.str.36) #20
  unreachable

16:                                               ; preds = %13
  %17 = tail call ptr @xcalloc(i64 noundef 1, i64 noundef 24) #18
  store i32 2, ptr %17, align 8, !tbaa !55
  %18 = getelementptr inbounds nuw i8, ptr %17, i64 8
  store ptr %2, ptr %18, align 8, !tbaa !23
  %19 = getelementptr inbounds nuw i8, ptr %17, i64 16
  store ptr %14, ptr %19, align 8, !tbaa !23
  br label %20

20:                                               ; preds = %1, %4, %16
  %.0 = phi ptr [ %17, %16 ], [ %2, %4 ], [ %2, %1 ]
  ret ptr %.0
}